target datalayout = "e-m:e-p270:32:32-p271:32:32-p272:64:64-i64:64-i128:128-f80:128-n8:16:32:64-S128"
target triple = "x86_64-pc-linux-gnu"

%"class.std::unique_ptr" = type { %"struct.std::__uniq_ptr_data" }
%"struct.std::__uniq_ptr_data" = type { %"class.std::__uniq_ptr_impl" }
%"class.std::__uniq_ptr_impl" = type { %"class.std::tuple" }
%"class.std::tuple" = type { %"struct.std::_Tuple_impl" }
%"struct.std::_Tuple_impl" = type { %"struct.std::_Head_base.1" }
%"struct.std::_Head_base.1" = type { ptr }
%"class.g2o::cholmod::Cholmod" = type { %"class.std::unique_ptr" }
%"class.g2o::cholmod::Cholmod::Impl" = type { %struct.cholmod_common_struct, %"struct.g2o::cholmod::CholmodExt", ptr }
%struct.cholmod_common_struct = type { double, double, double, i64, i64, double, i32, i32, i32, i32, i32, i32, i32, [3 x double], [3 x i64], i32, i32, i32, i32, i32, i32, i32, ptr, i32, i32, i32, [10 x %"struct.cholmod_common_struct::cholmod_method_struct"], i32, i32, double, double, i64, i64, i64, i64, i64, ptr, ptr, ptr, ptr, i32, i32, i32, i32, double, double, double, double, i64, i64, i64, double, double, double, double, double, i32, i32, double, double, i32, i32, double, double, double, double, double, double, double, [10 x i64], i32, i64, double, i64, double, i64, i32, ptr, [8 x ptr], [3 x ptr], ptr, [8 x ptr], ptr, i64, ptr, i64, i64, i32, double, double, double, double, double, double, double, double, double, double, double, i64, i64, i64, i64, i64, i64, i64, i64 }
%"struct.cholmod_common_struct::cholmod_method_struct" = type { double, double, double, double, double, [4 x double], i64, [4 x i64], i32, i32, i32, i32, i32, i32, [4 x i64] }
%"struct.g2o::cholmod::CholmodExt" = type { %struct.cholmod_sparse_struct, i64 }
%struct.cholmod_sparse_struct = type { i64, i64, i64, ptr, ptr, ptr, ptr, ptr, i32, i32, i32, i32, i32, i32 }

; Function Attrs: mustprogress nounwind uwtable
define linkonce_odr noundef nonnull align 8 dereferenceable(8) ptr @_ZNSt10_Head_baseILm0EPN3g2o7cholmod7Cholmod4ImplELb0EE7_M_headERKS5_(ptr noundef nonnull align 8 dereferenceable(8) %0) #2 comdat align 2 {
  %2 = alloca ptr, align 8
  store ptr %0, ptr %2, align 8, !tbaa !88
  %3 = load ptr, ptr %2, align 8, !tbaa !88
  %4 = getelementptr inbounds nuw %"struct.std::_Head_base.1", ptr %3, i32 0, i32 0
  ret ptr %4
}

; Function Attrs: mustprogress nounwind uwtable
define linkonce_odr noundef nonnull align 8 dereferenceable(8) ptr @_ZNSt11_Tuple_implILm0EJPN3g2o7cholmod7Cholmod4ImplESt14default_deleteIS3_EEE7_M_headERKS7_(ptr noundef nonnull align 8 dereferenceable(8) %0) #2 comdat align 2 {
  %2 = alloca ptr, align 8
  store ptr %0, ptr %2, align 8, !tbaa !84
  %3 = load ptr, ptr %2, align 8, !tbaa !84
  %4 = call noundef nonnull align 8 dereferenceable(8) ptr @_ZNSt10_Head_baseILm0EPN3g2o7cholmod7Cholmod4ImplELb0EE7_M_headERKS5_(ptr noundef nonnull align 8 dereferenceable(8) %3) #10
  ret ptr %4
}

; Function Attrs: mustprogress nounwind uwtable
define linkonce_odr noundef nonnull align 8 dereferenceable(8) ptr @_ZSt12__get_helperILm0EPN3g2o7cholmod7Cholmod4ImplEJSt14default_deleteIS3_EEERKT0_RKSt11_Tuple_implIXT_EJS7_DpT1_EE(ptr noundef nonnull align 8 dereferenceable(8) %0) #2 comdat {
  %2 = alloca ptr, align 8
  store ptr %0, ptr %2, align 8, !tbaa !84
  %3 = load ptr, ptr %2, align 8, !tbaa !84
  %4 = call noundef nonnull align 8 dereferenceable(8) ptr @_ZNSt11_Tuple_implILm0EJPN3g2o7cholmod7Cholmod4ImplESt14default_deleteIS3_EEE7_M_headERKS7_(ptr noundef nonnull align 8 dereferenceable(8) %3) #10
  ret ptr %4
}

; Function Attrs: mustprogress nounwind uwtable
define linkonce_odr noundef nonnull align 8 dereferenceable(8) ptr @_ZSt3getILm0EJPN3g2o7cholmod7Cholmod4ImplESt14default_deleteIS3_EEERKNSt13tuple_elementIXT_ESt5tupleIJDpT0_EEE4typeERKSB_(ptr noundef nonnull align 8 dereferenceable(8) %0) #2 comdat {
  %2 = alloca ptr, align 8
  store ptr %0, ptr %2, align 8, !tbaa !82
  %3 = load ptr, ptr %2, align 8, !tbaa !82
  %4 = call noundef nonnull align 8 dereferenceable(8) ptr @_ZSt12__get_helperILm0EPN3g2o7cholmod7Cholmod4ImplEJSt14default_deleteIS3_EEERKT0_RKSt11_Tuple_implIXT_EJS7_DpT1_EE(ptr noundef nonnull align 8 dereferenceable(8) %3) #10
  ret ptr %4
}

; Function Attrs: mustprogress nounwind uwtable
define linkonce_odr noundef ptr @_ZNKSt15__uniq_ptr_implIN3g2o7cholmod7Cholmod4ImplESt14default_deleteIS3_EE6_M_ptrEv(ptr noundef nonnull align 8 dereferenceable(8) %0) #2 comdat align 2 {
  %2 = alloca ptr, align 8
  store ptr %0, ptr %2, align 8, !tbaa !80
  %3 = load ptr, ptr %2, align 8
  %4 = getelementptr inbounds nuw %"class.std::__uniq_ptr_impl", ptr %3, i32 0, i32 0
  %5 = call noundef nonnull align 8 dereferenceable(8) ptr @_ZSt3getILm0EJPN3g2o7cholmod7Cholmod4ImplESt14default_deleteIS3_EEERKNSt13tuple_elementIXT_ESt5tupleIJDpT0_EEE4typeERKSB_(ptr noundef nonnull align 8 dereferenceable(8) %4) #10
  %6 = load ptr, ptr %5, align 8, !tbaa !12
  ret ptr %6
}

; Function Attrs: mustprogress nounwind uwtable
define linkonce_odr noundef ptr @_ZNKSt10unique_ptrIN3g2o7cholmod7Cholmod4ImplESt14default_deleteIS3_EE3getEv(ptr noundef nonnull align 8 dereferenceable(8) %0) #2 comdat align 2 {
  %2 = alloca ptr, align 8
  store ptr %0, ptr %2, align 8, !tbaa !8
  %3 = load ptr, ptr %2, align 8
  %4 = getelementptr inbounds nuw %"class.std::unique_ptr", ptr %3, i32 0, i32 0
  %5 = call noundef ptr @_ZNKSt15__uniq_ptr_implIN3g2o7cholmod7Cholmod4ImplESt14default_deleteIS3_EE6_M_ptrEv(ptr noundef nonnull align 8 dereferenceable(8) %4) #10
  ret ptr %5
}

; Function Attrs: mustprogress nounwind uwtable
define linkonce_odr noundef ptr @_ZNKSt10unique_ptrIN3g2o7cholmod7Cholmod4ImplESt14default_deleteIS3_EEptEv(ptr noundef nonnull align 8 dereferenceable(8) %0) #2 comdat align 2 {
  %2 = alloca ptr, align 8
  store ptr %0, ptr %2, align 8, !tbaa !8
  %3 = load ptr, ptr %2, align 8
  %4 = call noundef ptr @_ZNKSt10unique_ptrIN3g2o7cholmod7Cholmod4ImplESt14default_deleteIS3_EE3getEv(ptr noundef nonnull align 8 dereferenceable(8) %3) #10
  ret ptr %4
}

; Function Attrs: mustprogress uwtable
define noundef zeroext i1 @_ZN3g2o7cholmod7Cholmod9analyze_pEPi(ptr noundef nonnull align 8 dereferenceable(8) %0, ptr noundef %1) #0 align 2 {
  %3 = alloca ptr, align 8
  %4 = alloca ptr, align 8
  store ptr %0, ptr %3, align 8, !tbaa !3
  store ptr %1, ptr %4, align 8, !tbaa !25
  %5 = load ptr, ptr %3, align 8
  %6 = getelementptr inbounds nuw %"class.g2o::cholmod::Cholmod", ptr %5, i32 0, i32 0
  %7 = call noundef ptr @_ZNKSt10unique_ptrIN3g2o7cholmod7Cholmod4ImplESt14default_deleteIS3_EEptEv(ptr noundef nonnull align 8 dereferenceable(8) %6) #10
  %8 = getelementptr inbounds nuw %"class.g2o::cholmod::Cholmod::Impl", ptr %7, i32 0, i32 0
  %9 = getelementptr inbounds nuw %struct.cholmod_common_struct, ptr %8, i32 0, i32 23
  store i32 1, ptr %9, align 8, !tbaa !71
  %10 = getelementptr inbounds nuw %"class.g2o::cholmod::Cholmod", ptr %5, i32 0, i32 0
  %11 = call noundef ptr @_ZNKSt10unique_ptrIN3g2o7cholmod7Cholmod4ImplESt14default_deleteIS3_EEptEv(ptr noundef nonnull align 8 dereferenceable(8) %10) #10
  %12 = getelementptr inbounds nuw %"class.g2o::cholmod::Cholmod::Impl", ptr %11, i32 0, i32 0
  %13 = getelementptr inbounds nuw %struct.cholmod_common_struct, ptr %12, i32 0, i32 26
  %14 = getelementptr inbounds [10 x %"struct.cholmod_common_struct::cholmod_method_struct"], ptr %13, i64 0, i64 0
  %15 = getelementptr inbounds nuw %"struct.cholmod_common_struct::cholmod_method_struct", ptr %14, i32 0, i32 13
  store i32 1, ptr %15, align 4, !tbaa !72
  %16 = getelementptr inbounds nuw %"class.g2o::cholmod::Cholmod", ptr %5, i32 0, i32 0
  %17 = call noundef ptr @_ZNKSt10unique_ptrIN3g2o7cholmod7Cholmod4ImplESt14default_deleteIS3_EEptEv(ptr noundef nonnull align 8 dereferenceable(8) %16) #10
  %18 = getelementptr inbounds nuw %"class.g2o::cholmod::Cholmod::Impl", ptr %17, i32 0, i32 1
  %19 = load ptr, ptr %4, align 8, !tbaa !25
  %20 = getelementptr inbounds nuw %"class.g2o::cholmod::Cholmod", ptr %5, i32 0, i32 0
  %21 = call noundef ptr @_ZNKSt10unique_ptrIN3g2o7cholmod7Cholmod4ImplESt14default_deleteIS3_EEptEv(ptr noundef nonnull align 8 dereferenceable(8) %20) #10
  %22 = getelementptr inbounds nuw %"class.g2o::cholmod::Cholmod::Impl", ptr %21, i32 0, i32 0
  %23 = call ptr @cholmod_analyze_p(ptr noundef %18, ptr noundef %19, ptr noundef null, i64 noundef 0, ptr noundef %22)
  %24 = getelementptr inbounds nuw %"class.g2o::cholmod::Cholmod", ptr %5, i32 0, i32 0
  %25 = call noundef ptr @_ZNKSt10unique_ptrIN3g2o7cholmod7Cholmod4ImplESt14default_deleteIS3_EEptEv(ptr noundef nonnull align 8 dereferenceable(8) %24) #10
  %26 = getelementptr inbounds nuw %"class.g2o::cholmod::Cholmod::Impl", ptr %25, i32 0, i32 2
  store ptr %23, ptr %26, align 8, !tbaa !14
  ret i1 true
}