; Function Attrs: mustprogress uwtable
define noundef zeroext i1 @_ZN3g2o7cholmod7Cholmod9analyze_pEPi(ptr noundef nonnull readonly align 8 captures(none) dereferenceable(8) %0, ptr noundef %1) local_unnamed_addr #0 align 2 {
  %3 = load ptr, ptr %0, align 8, !tbaa !29
  %4 = getelementptr inbounds nuw i8, ptr %3, i64 168
  store i32 1, ptr %4, align 8, !tbaa !25
  %5 = getelementptr inbounds nuw i8, ptr %3, i64 316
  store i32 1, ptr %5, align 4, !tbaa !26
  %6 = getelementptr inbounds nuw i8, ptr %3, i64 2664
  %7 = tail call ptr @cholmod_analyze_p(ptr noundef nonnull %6, ptr noundef %1, ptr noundef null, i64 noundef 0, ptr noundef %3)
  %8 = load ptr, ptr %0, align 8, !tbaa !29
  %9 = getelementptr inbounds nuw i8, ptr %8, i64 2760
  store ptr %7, ptr %9, align 8, !tbaa !20
  ret i1 true
}